; Function Attrs: inlinehint mustprogress nofree nounwind willreturn uwtable
define internal fastcc range(i32 -32, 1) i32 @pmix_bfrops_base_tma_copy_pinfo(ptr noundef writeonly captures(none) %0, ptr noundef readonly captures(none) %1) unnamed_addr #38 {
  %calloc.i = tail call dereferenceable_or_null(296) ptr @calloc(i64 1, i64 296)
  %3 = icmp eq ptr %calloc.i, null
  br i1 %3, label %26, label %4, !prof !77

4:                                                ; preds = %2
  tail call void @llvm.memcpy.p0.p0.i64(ptr noundef nonnull align 8 dereferenceable(260) %calloc.i, ptr noundef nonnull align 8 dereferenceable(260) %1, i64 260, i1 false)
  %5 = getelementptr inbounds nuw i8, ptr %1, i64 264
  %6 = load ptr, ptr %5, align 8, !tbaa !28
  %.not = icmp eq ptr %6, null
  br i1 %.not, label %10, label %7

7:                                                ; preds = %4
  %8 = tail call noalias ptr @strdup(ptr noundef nonnull readonly %6) #44
  %9 = getelementptr inbounds nuw i8, ptr %calloc.i, i64 264
  store ptr %8, ptr %9, align 8, !tbaa !28
  br label %10

10:                                               ; preds = %7, %4
  %11 = getelementptr inbounds nuw i8, ptr %1, i64 272
  %12 = load ptr, ptr %11, align 8, !tbaa !30
  %.not23 = icmp eq ptr %12, null
  br i1 %.not23, label %16, label %13

13:                                               ; preds = %10
  %14 = tail call noalias ptr @strdup(ptr noundef nonnull readonly %12) #44
  %15 = getelementptr inbounds nuw i8, ptr %calloc.i, i64 272
  store ptr %14, ptr %15, align 8, !tbaa !30
  br label %16

16:                                               ; preds = %13, %10
  %17 = getelementptr inbounds nuw i8, ptr %calloc.i, i64 280
  %18 = getelementptr inbounds nuw i8, ptr %1, i64 280
  %19 = load i32, ptr %18, align 8
  store i32 %19, ptr %17, align 8
  %20 = getelementptr inbounds nuw i8, ptr %calloc.i, i64 284
  %21 = getelementptr inbounds nuw i8, ptr %1, i64 284
  %22 = load i32, ptr %21, align 4
  store i32 %22, ptr %20, align 4
  %23 = getelementptr inbounds nuw i8, ptr %calloc.i, i64 288
  %24 = getelementptr inbounds nuw i8, ptr %1, i64 288
  %25 = load i8, ptr %24, align 8
  store i8 %25, ptr %23, align 8
  store ptr %calloc.i, ptr %0, align 8, !tbaa !161
  br label %26

26:                                               ; preds = %2, %16
  %.0 = phi i32 [ 0, %16 ], [ -32, %2 ]
  ret i32 %.0
}